; Function Attrs: null_pointer_is_valid sspstrong uwtable
define hidden i32 @dissect_h225_GenericIdentifier(ptr noundef %0, i32 noundef %1, ptr noundef %2, ptr noundef %3, i32 noundef %4) #0 {
  %6 = load i32, ptr @ett_h225_GenericIdentifier, align 4
  %7 = tail call i32 @dissect_per_choice(ptr noundef %0, i32 noundef %1, ptr noundef %2, ptr noundef %3, i32 noundef %4, i32 noundef %6, ptr noundef nonnull @GenericIdentifier_choice, ptr noundef null)
  %8 = getelementptr inbounds nuw i8, ptr %2, i64 16
  %9 = load ptr, ptr %8, align 8
  %10 = getelementptr inbounds nuw i8, ptr %9, i64 408
  %11 = load ptr, ptr %10, align 8
  %12 = getelementptr inbounds nuw i8, ptr %2, i64 48
  %13 = load ptr, ptr %12, align 8
  %14 = tail call ptr @gef_ctx_get(ptr noundef %13)
  tail call void @gef_ctx_update_key(ptr noundef %11, ptr noundef %14)
  %15 = load ptr, ptr %12, align 8
  %16 = tail call ptr @gef_ctx_get(ptr noundef %15)
  %.not = icmp eq ptr %16, null
  br i1 %.not, label %35, label %17

17:                                               ; preds = %5
  %18 = load i32, ptr @hf_h225_debug_dissector_try_string, align 4
  %19 = ashr i32 %7, 3
  %20 = getelementptr inbounds nuw i8, ptr %16, i64 40
  %21 = load ptr, ptr %20, align 8
  %22 = tail call ptr @proto_tree_add_string(ptr noundef %3, i32 noundef %18, ptr noundef %0, i32 noundef %19, i32 noundef 0, ptr noundef %21)
  %.not.i = icmp eq ptr %22, null
  br i1 %.not.i, label %proto_item_set_hidden.exit, label %23

23:                                               ; preds = %17
  %24 = getelementptr inbounds nuw i8, ptr %22, i64 40
  %25 = load ptr, ptr %24, align 8
  %.not5.i = icmp eq ptr %25, null
  br i1 %.not5.i, label %proto_item_set_hidden.exit, label %26

26:                                               ; preds = %23
  %27 = getelementptr inbounds nuw i8, ptr %25, i64 28
  %28 = load i32, ptr %27, align 4
  %29 = or i32 %28, 1
  store i32 %29, ptr %27, align 4
  br label %proto_item_set_hidden.exit

proto_item_set_hidden.exit:                       ; preds = %17, %23, %26
  %30 = load ptr, ptr @gef_name_dissector_table, align 8
  %31 = load ptr, ptr %20, align 8
  %32 = tail call ptr @tvb_new_subset_length_caplen(ptr noundef %0, i32 noundef %19, i32 noundef 0, i32 noundef 0)
  %33 = load ptr, ptr %8, align 8
  %34 = tail call i32 @dissector_try_string_with_data(ptr noundef %30, ptr noundef %31, ptr noundef %32, ptr noundef %33, ptr noundef %3, i1 noundef zeroext false, ptr noundef %2)
  br label %35

35:                                               ; preds = %proto_item_set_hidden.exit, %5
  store ptr %16, ptr %12, align 8
  ret i32 %7
}